target datalayout = "e-m:e-p270:32:32-p271:32:32-p272:64:64-i64:64-i128:128-f80:128-n8:16:32:64-S128"
target triple = "x86_64-pc-linux-gnu"

%struct.Abc_Ntk_t_ = type { i32, i32, ptr, ptr, ptr, ptr, ptr, ptr, ptr, ptr, ptr, ptr, ptr, [11 x i32], i32, i32, i32, i32, ptr, i32, ptr, ptr, i32, i32, i32, double, i32, %struct.Vec_Int_t_, ptr, ptr, ptr, ptr, ptr, float, i32, ptr, ptr, ptr, ptr, ptr, ptr, ptr, ptr, ptr, ptr, ptr, ptr, ptr, ptr, ptr, ptr, ptr, ptr, ptr, ptr, ptr, ptr }
%struct.Vec_Int_t_ = type { i32, i32, ptr }
%struct.Abc_Obj_t_ = type { ptr, ptr, i32, i32, %struct.Vec_Int_t_, %struct.Vec_Int_t_, %union.anon, %union.anon.0 }
%union.anon = type { ptr }
%union.anon.0 = type { ptr }
%struct.Vec_Ptr_t_ = type { i32, i32, ptr }

@.str.2 = private unnamed_addr constant [9 x i8] c"%s_miter\00", align 1
@.str.3 = private unnamed_addr constant [53 x i8] c"Abc_NtkMiterCofactor: The network check has failed.\0A\00", align 1

; Function Attrs: inlinehint nounwind uwtable
define internal ptr @Vec_PtrEntry(ptr noundef %0, i32 noundef %1) #3 {
  %3 = alloca ptr, align 8
  %4 = alloca i32, align 4
  store ptr %0, ptr %3, align 8, !tbaa !31
  store i32 %1, ptr %4, align 4, !tbaa !8
  %5 = load ptr, ptr %3, align 8, !tbaa !31
  %6 = getelementptr inbounds nuw %struct.Vec_Ptr_t_, ptr %5, i32 0, i32 2
  %7 = load ptr, ptr %6, align 8, !tbaa !36
  %8 = load i32, ptr %4, align 4, !tbaa !8
  %9 = sext i32 %8 to i64
  %10 = getelementptr inbounds ptr, ptr %7, i64 %9
  %11 = load ptr, ptr %10, align 8, !tbaa !37
  ret ptr %11
}

; Function Attrs: inlinehint nounwind uwtable
define internal ptr @Abc_NtkPo(ptr noundef %0, i32 noundef %1) #3 {
  %3 = alloca ptr, align 8
  %4 = alloca i32, align 4
  store ptr %0, ptr %3, align 8, !tbaa !3
  store i32 %1, ptr %4, align 4, !tbaa !8
  %5 = load ptr, ptr %3, align 8, !tbaa !3
  %6 = getelementptr inbounds nuw %struct.Abc_Ntk_t_, ptr %5, i32 0, i32 7
  %7 = load ptr, ptr %6, align 8, !tbaa !47
  %8 = load i32, ptr %4, align 4, !tbaa !8
  %9 = call ptr @Vec_PtrEntry(ptr noundef %7, i32 noundef %8)
  ret ptr %9
}

; Function Attrs: inlinehint nounwind uwtable
define internal ptr @Abc_ObjNotCond(ptr noundef %0, i32 noundef %1) #3 {
  %3 = alloca ptr, align 8
  %4 = alloca i32, align 4
  store ptr %0, ptr %3, align 8, !tbaa !28
  store i32 %1, ptr %4, align 4, !tbaa !8
  %5 = load ptr, ptr %3, align 8, !tbaa !28
  %6 = ptrtoint ptr %5 to i64
  %7 = load i32, ptr %4, align 4, !tbaa !8
  %8 = icmp ne i32 %7, 0
  %9 = zext i1 %8 to i32
  %10 = sext i32 %9 to i64
  %11 = xor i64 %6, %10
  %12 = inttoptr i64 %11 to ptr
  ret ptr %12
}

; Function Attrs: inlinehint nounwind uwtable
define internal i32 @Abc_ObjFaninC0(ptr noundef %0) #3 {
  %2 = alloca ptr, align 8
  store ptr %0, ptr %2, align 8, !tbaa !28
  %3 = load ptr, ptr %2, align 8, !tbaa !28
  %4 = getelementptr inbounds nuw %struct.Abc_Obj_t_, ptr %3, i32 0, i32 3
  %5 = load i32, ptr %4, align 4
  %6 = lshr i32 %5, 10
  %7 = and i32 %6, 1
  ret i32 %7
}

; Function Attrs: inlinehint nounwind uwtable
define internal ptr @Abc_ObjFanin0(ptr noundef %0) #3 {
  %2 = alloca ptr, align 8
  store ptr %0, ptr %2, align 8, !tbaa !28
  %3 = load ptr, ptr %2, align 8, !tbaa !28
  %4 = getelementptr inbounds nuw %struct.Abc_Obj_t_, ptr %3, i32 0, i32 0
  %5 = load ptr, ptr %4, align 8, !tbaa !48
  %6 = getelementptr inbounds nuw %struct.Abc_Ntk_t_, ptr %5, i32 0, i32 5
  %7 = load ptr, ptr %6, align 8, !tbaa !45
  %8 = getelementptr inbounds nuw %struct.Vec_Ptr_t_, ptr %7, i32 0, i32 2
  %9 = load ptr, ptr %8, align 8, !tbaa !36
  %10 = load ptr, ptr %2, align 8, !tbaa !28
  %11 = getelementptr inbounds nuw %struct.Abc_Obj_t_, ptr %10, i32 0, i32 4
  %12 = getelementptr inbounds nuw %struct.Vec_Int_t_, ptr %11, i32 0, i32 2
  %13 = load ptr, ptr %12, align 8, !tbaa !50
  %14 = getelementptr inbounds i32, ptr %13, i64 0
  %15 = load i32, ptr %14, align 4, !tbaa !8
  %16 = sext i32 %15 to i64
  %17 = getelementptr inbounds ptr, ptr %9, i64 %16
  %18 = load ptr, ptr %17, align 8, !tbaa !37
  ret ptr %18
}

; Function Attrs: inlinehint nounwind uwtable
define internal ptr @Abc_NtkCi(ptr noundef %0, i32 noundef %1) #3 {
  %3 = alloca ptr, align 8
  %4 = alloca i32, align 4
  store ptr %0, ptr %3, align 8, !tbaa !3
  store i32 %1, ptr %4, align 4, !tbaa !8
  %5 = load ptr, ptr %3, align 8, !tbaa !3
  %6 = getelementptr inbounds nuw %struct.Abc_Ntk_t_, ptr %5, i32 0, i32 8
  %7 = load ptr, ptr %6, align 8, !tbaa !56
  %8 = load i32, ptr %4, align 4, !tbaa !8
  %9 = call ptr @Vec_PtrEntry(ptr noundef %7, i32 noundef %8)
  ret ptr %9
}

; Function Attrs: inlinehint nounwind uwtable
define internal ptr @Abc_ObjNot(ptr noundef %0) #3 {
  %2 = alloca ptr, align 8
  store ptr %0, ptr %2, align 8, !tbaa !28
  %3 = load ptr, ptr %2, align 8, !tbaa !28
  %4 = ptrtoint ptr %3 to i64
  %5 = xor i64 %4, 1
  %6 = inttoptr i64 %5 to ptr
  ret ptr %6
}

; Function Attrs: inlinehint nounwind uwtable
define internal i32 @Vec_IntEntry(ptr noundef %0, i32 noundef %1) #3 {
  %3 = alloca ptr, align 8
  %4 = alloca i32, align 4
  store ptr %0, ptr %3, align 8, !tbaa !51
  store i32 %1, ptr %4, align 4, !tbaa !8
  %5 = load ptr, ptr %3, align 8, !tbaa !51
  %6 = getelementptr inbounds nuw %struct.Vec_Int_t_, ptr %5, i32 0, i32 2
  %7 = load ptr, ptr %6, align 8, !tbaa !55
  %8 = load i32, ptr %4, align 4, !tbaa !8
  %9 = sext i32 %8 to i64
  %10 = getelementptr inbounds i32, ptr %7, i64 %9
  %11 = load i32, ptr %10, align 4, !tbaa !8
  ret i32 %11
}

; Function Attrs: inlinehint nounwind uwtable
define internal i32 @Vec_IntSize(ptr noundef %0) #3 {
  %2 = alloca ptr, align 8
  store ptr %0, ptr %2, align 8, !tbaa !51
  %3 = load ptr, ptr %2, align 8, !tbaa !51
  %4 = getelementptr inbounds nuw %struct.Vec_Int_t_, ptr %3, i32 0, i32 1
  %5 = load i32, ptr %4, align 4, !tbaa !54
  ret i32 %5
}

; Function Attrs: inlinehint nounwind uwtable
define internal ptr @Abc_NtkCo(ptr noundef %0, i32 noundef %1) #3 {
  %3 = alloca ptr, align 8
  %4 = alloca i32, align 4
  store ptr %0, ptr %3, align 8, !tbaa !3
  store i32 %1, ptr %4, align 4, !tbaa !8
  %5 = load ptr, ptr %3, align 8, !tbaa !3
  %6 = getelementptr inbounds nuw %struct.Abc_Ntk_t_, ptr %5, i32 0, i32 9
  %7 = load ptr, ptr %6, align 8, !tbaa !53
  %8 = load i32, ptr %4, align 4, !tbaa !8
  %9 = call ptr @Vec_PtrEntry(ptr noundef %7, i32 noundef %8)
  ret ptr %9
}

; Function Attrs: nounwind uwtable
define ptr @Abc_NtkMiterCofactor(ptr noundef %0, ptr noundef %1) #0 {
  %3 = alloca ptr, align 8
  %4 = alloca ptr, align 8
  %5 = alloca ptr, align 8
  %6 = alloca [1000 x i8], align 16
  %7 = alloca ptr, align 8
  %8 = alloca ptr, align 8
  %9 = alloca ptr, align 8
  %10 = alloca i32, align 4
  %11 = alloca i32, align 4
  %12 = alloca i32, align 4
  store ptr %0, ptr %4, align 8, !tbaa !3
  store ptr %1, ptr %5, align 8, !tbaa !51
  call void @llvm.lifetime.start.p0(i64 1000, ptr %6) #9
  call void @llvm.lifetime.start.p0(i64 8, ptr %7) #9
  call void @llvm.lifetime.start.p0(i64 8, ptr %8) #9
  call void @llvm.lifetime.start.p0(i64 8, ptr %9) #9
  call void @llvm.lifetime.start.p0(i64 4, ptr %10) #9
  call void @llvm.lifetime.start.p0(i64 4, ptr %11) #9
  %13 = call ptr @Abc_NtkAlloc(i32 noundef 3, i32 noundef 3, i32 noundef 1)
  store ptr %13, ptr %7, align 8, !tbaa !3
  %14 = getelementptr inbounds [1000 x i8], ptr %6, i64 0, i64 0
  %15 = load ptr, ptr %4, align 8, !tbaa !3
  %16 = getelementptr inbounds nuw %struct.Abc_Ntk_t_, ptr %15, i32 0, i32 2
  %17 = load ptr, ptr %16, align 8, !tbaa !26
  %18 = call i32 (ptr, ptr, ...) @sprintf(ptr noundef %14, ptr noundef @.str.2, ptr noundef %17) #9
  %19 = getelementptr inbounds [1000 x i8], ptr %6, i64 0, i64 0
  %20 = call ptr @Extra_UtilStrsav(ptr noundef %19)
  %21 = load ptr, ptr %7, align 8, !tbaa !3
  %22 = getelementptr inbounds nuw %struct.Abc_Ntk_t_, ptr %21, i32 0, i32 2
  store ptr %20, ptr %22, align 8, !tbaa !26
  %23 = load ptr, ptr %4, align 8, !tbaa !3
  %24 = call ptr @Abc_NtkCo(ptr noundef %23, i32 noundef 0)
  store ptr %24, ptr %8, align 8, !tbaa !28
  %25 = load ptr, ptr %4, align 8, !tbaa !3
  %26 = load ptr, ptr %4, align 8, !tbaa !3
  %27 = load ptr, ptr %7, align 8, !tbaa !3
  call void @Abc_NtkMiterPrepare(ptr noundef %25, ptr noundef %26, ptr noundef %27, i32 noundef 1, i32 noundef -1, i32 noundef 0)
  store i32 0, ptr %11, align 4, !tbaa !8
  br label %28

28:                                               ; preds = %65, %2
  %29 = load i32, ptr %11, align 4, !tbaa !8
  %30 = load ptr, ptr %5, align 8, !tbaa !51
  %31 = call i32 @Vec_IntSize(ptr noundef %30)
  %32 = icmp slt i32 %29, %31
  br i1 %32, label %33, label %37

33:                                               ; preds = %28
  %34 = load ptr, ptr %5, align 8, !tbaa !51
  %35 = load i32, ptr %11, align 4, !tbaa !8
  %36 = call i32 @Vec_IntEntry(ptr noundef %34, i32 noundef %35)
  store i32 %36, ptr %10, align 4, !tbaa !8
  br label %37

37:                                               ; preds = %33, %28
  %38 = phi i1 [ false, %28 ], [ true, %33 ]
  br i1 %38, label %39, label %68

39:                                               ; preds = %37
  %40 = load i32, ptr %10, align 4, !tbaa !8
  %41 = icmp eq i32 %40, -1
  br i1 %41, label %42, label %43

42:                                               ; preds = %39
  br label %65

43:                                               ; preds = %39
  %44 = load i32, ptr %10, align 4, !tbaa !8
  %45 = icmp eq i32 %44, 0
  br i1 %45, label %46, label %54

46:                                               ; preds = %43
  %47 = load ptr, ptr %7, align 8, !tbaa !3
  %48 = call ptr @Abc_AigConst1(ptr noundef %47)
  %49 = call ptr @Abc_ObjNot(ptr noundef %48)
  %50 = load ptr, ptr %4, align 8, !tbaa !3
  %51 = load i32, ptr %11, align 4, !tbaa !8
  %52 = call ptr @Abc_NtkCi(ptr noundef %50, i32 noundef %51)
  %53 = getelementptr inbounds nuw %struct.Abc_Obj_t_, ptr %52, i32 0, i32 7
  store ptr %49, ptr %53, align 8, !tbaa !30
  br label %65

54:                                               ; preds = %43
  %55 = load i32, ptr %10, align 4, !tbaa !8
  %56 = icmp eq i32 %55, 1
  br i1 %56, label %57, label %64

57:                                               ; preds = %54
  %58 = load ptr, ptr %7, align 8, !tbaa !3
  %59 = call ptr @Abc_AigConst1(ptr noundef %58)
  %60 = load ptr, ptr %4, align 8, !tbaa !3
  %61 = load i32, ptr %11, align 4, !tbaa !8
  %62 = call ptr @Abc_NtkCi(ptr noundef %60, i32 noundef %61)
  %63 = getelementptr inbounds nuw %struct.Abc_Obj_t_, ptr %62, i32 0, i32 7
  store ptr %59, ptr %63, align 8, !tbaa !30
  br label %65

64:                                               ; preds = %54
  br label %65

65:                                               ; preds = %64, %57, %46, %42
  %66 = load i32, ptr %11, align 4, !tbaa !8
  %67 = add nsw i32 %66, 1
  store i32 %67, ptr %11, align 4, !tbaa !8
  br label %28, !llvm.loop !52

68:                                               ; preds = %37
  %69 = load ptr, ptr %4, align 8, !tbaa !3
  %70 = load ptr, ptr %7, align 8, !tbaa !3
  %71 = load ptr, ptr %8, align 8, !tbaa !28
  call void @Abc_NtkMiterAddCone(ptr noundef %69, ptr noundef %70, ptr noundef %71)
  %72 = load ptr, ptr %8, align 8, !tbaa !28
  %73 = call ptr @Abc_ObjFanin0(ptr noundef %72)
  %74 = getelementptr inbounds nuw %struct.Abc_Obj_t_, ptr %73, i32 0, i32 7
  %75 = load ptr, ptr %74, align 8, !tbaa !30
  %76 = load ptr, ptr %8, align 8, !tbaa !28
  %77 = call i32 @Abc_ObjFaninC0(ptr noundef %76)
  %78 = call ptr @Abc_ObjNotCond(ptr noundef %75, i32 noundef %77)
  store ptr %78, ptr %9, align 8, !tbaa !28
  %79 = load ptr, ptr %7, align 8, !tbaa !3
  %80 = call ptr @Abc_NtkPo(ptr noundef %79, i32 noundef 0)
  %81 = load ptr, ptr %9, align 8, !tbaa !28
  call void @Abc_ObjAddFanin(ptr noundef %80, ptr noundef %81)
  %82 = load ptr, ptr %7, align 8, !tbaa !3
  %83 = call i32 @Abc_NtkCheck(ptr noundef %82)
  %84 = icmp ne i32 %83, 0
  br i1 %84, label %88, label %85

85:                                               ; preds = %68
  %86 = call i32 (ptr, ...) @printf(ptr noundef @.str.3)
  %87 = load ptr, ptr %7, align 8, !tbaa !3
  call void @Abc_NtkDelete(ptr noundef %87)
  store ptr null, ptr %3, align 8
  store i32 1, ptr %12, align 4
  br label %90

88:                                               ; preds = %68
  %89 = load ptr, ptr %7, align 8, !tbaa !3
  store ptr %89, ptr %3, align 8
  store i32 1, ptr %12, align 4
  br label %90

90:                                               ; preds = %88, %85
  call void @llvm.lifetime.end.p0(i64 4, ptr %11) #9
  call void @llvm.lifetime.end.p0(i64 4, ptr %10) #9
  call void @llvm.lifetime.end.p0(i64 8, ptr %9) #9
  call void @llvm.lifetime.end.p0(i64 8, ptr %8) #9
  call void @llvm.lifetime.end.p0(i64 8, ptr %7) #9
  call void @llvm.lifetime.end.p0(i64 1000, ptr %6) #9
  %91 = load ptr, ptr %3, align 8
  ret ptr %91
}