; Function Attrs: nounwind uwtable
define ptr @Abc_NtkMiterCofactor(ptr noundef %0, ptr noundef readonly captures(none) %1) local_unnamed_addr #0 {
  %3 = alloca [1000 x i8], align 16
  call void @llvm.lifetime.start.p0(i64 1000, ptr nonnull %3) #16
  %4 = tail call ptr @Abc_NtkAlloc(i32 noundef 3, i32 noundef 3, i32 noundef 1) #16
  %5 = getelementptr inbounds nuw i8, ptr %0, i64 8
  %6 = load ptr, ptr %5, align 8, !tbaa !24
  %7 = call i32 (ptr, ptr, ...) @sprintf(ptr noundef nonnull dereferenceable(1) %3, ptr noundef nonnull dereferenceable(1) @.str.2, ptr noundef %6) #16
  %8 = call ptr @Extra_UtilStrsav(ptr noundef nonnull %3) #16
  %9 = getelementptr inbounds nuw i8, ptr %4, i64 8
  store ptr %8, ptr %9, align 8, !tbaa !24
  %10 = getelementptr i8, ptr %0, i64 64
  %.val33 = load ptr, ptr %10, align 8, !tbaa !41
  %11 = getelementptr i8, ptr %.val33, i64 8
  %.val33.val = load ptr, ptr %11, align 8, !tbaa !28
  %12 = load ptr, ptr %.val33.val, align 8, !tbaa !29
  call fastcc void @Abc_NtkMiterPrepare(ptr noundef %0, ptr noundef %0, ptr noundef %4, i32 noundef 1, i32 noundef -1, i32 noundef 0)
  %13 = getelementptr i8, ptr %1, i64 4
  %.val3840 = load i32, ptr %13, align 4, !tbaa !61
  %14 = icmp sgt i32 %.val3840, 0
  br i1 %14, label %.lr.ph, label %.critedge

.lr.ph:                                           ; preds = %2
  %15 = getelementptr i8, ptr %1, i64 8
  %16 = getelementptr i8, ptr %0, i64 56
  br label %17

17:                                               ; preds = %.lr.ph, %31
  %indvars.iv = phi i64 [ 0, %.lr.ph ], [ %indvars.iv.next, %31 ]
  %.val39 = load ptr, ptr %15, align 8, !tbaa !62
  %18 = getelementptr inbounds nuw i32, ptr %.val39, i64 %indvars.iv
  %19 = load i32, ptr %18, align 4, !tbaa !36
  switch i32 %19, label %31 [
    i32 1, label %25
    i32 0, label %20
  ]

20:                                               ; preds = %17
  %21 = call ptr @Abc_AigConst1(ptr noundef %4) #16
  %22 = ptrtoint ptr %21 to i64
  %23 = xor i64 %22, 1
  %24 = inttoptr i64 %23 to ptr
  br label %.sink.split

25:                                               ; preds = %17
  %26 = call ptr @Abc_AigConst1(ptr noundef %4) #16
  br label %.sink.split

.sink.split:                                      ; preds = %20, %25
  %.sink = phi ptr [ %26, %25 ], [ %24, %20 ]
  %.val32 = load ptr, ptr %16, align 8, !tbaa !52
  %27 = getelementptr i8, ptr %.val32, i64 8
  %.val32.val = load ptr, ptr %27, align 8, !tbaa !28
  %28 = getelementptr inbounds nuw ptr, ptr %.val32.val, i64 %indvars.iv
  %29 = load ptr, ptr %28, align 8, !tbaa !29
  %30 = getelementptr inbounds nuw i8, ptr %29, i64 64
  store ptr %.sink, ptr %30, align 8, !tbaa !37
  br label %31

31:                                               ; preds = %.sink.split, %17
  %indvars.iv.next = add nuw nsw i64 %indvars.iv, 1
  %.val38 = load i32, ptr %13, align 4, !tbaa !61
  %32 = sext i32 %.val38 to i64
  %33 = icmp slt i64 %indvars.iv.next, %32
  br i1 %33, label %17, label %.critedge, !llvm.loop !63

.critedge:                                        ; preds = %31, %2
  call void @Abc_NtkMiterAddCone(ptr noundef %0, ptr noundef %4, ptr noundef %12)
  %.val35 = load ptr, ptr %12, align 8, !tbaa !34
  %34 = getelementptr i8, ptr %12, i64 32
  %.val36 = load ptr, ptr %34, align 8, !tbaa !35
  %35 = getelementptr i8, ptr %.val35, i64 32
  %.val35.val = load ptr, ptr %35, align 8, !tbaa !25
  %.val36.val = load i32, ptr %.val36, align 4, !tbaa !36
  %36 = getelementptr i8, ptr %.val35.val, i64 8
  %.val35.val.val = load ptr, ptr %36, align 8, !tbaa !28
  %37 = sext i32 %.val36.val to i64
  %38 = getelementptr inbounds ptr, ptr %.val35.val.val, i64 %37
  %39 = load ptr, ptr %38, align 8, !tbaa !29
  %40 = getelementptr inbounds nuw i8, ptr %39, i64 64
  %41 = load ptr, ptr %40, align 8, !tbaa !37
  %42 = getelementptr i8, ptr %12, i64 20
  %.val37 = load i32, ptr %42, align 4
  %43 = ptrtoint ptr %41 to i64
  %44 = lshr i32 %.val37, 10
  %.lobit = and i32 %44, 1
  %45 = zext nneg i32 %.lobit to i64
  %46 = xor i64 %45, %43
  %47 = inttoptr i64 %46 to ptr
  %48 = getelementptr i8, ptr %4, i64 48
  %.val34 = load ptr, ptr %48, align 8, !tbaa !43
  %49 = getelementptr i8, ptr %.val34, i64 8
  %.val34.val = load ptr, ptr %49, align 8, !tbaa !28
  %50 = load ptr, ptr %.val34.val, align 8, !tbaa !29
  call void @Abc_ObjAddFanin(ptr noundef %50, ptr noundef %47) #16
  %51 = call i32 @Abc_NtkCheck(ptr noundef %4) #16
  %.not = icmp eq i32 %51, 0
  br i1 %.not, label %52, label %53

52:                                               ; preds = %.critedge
  %puts = call i32 @puts(ptr nonnull dereferenceable(1) @str.2)
  call void @Abc_NtkDelete(ptr noundef nonnull %4) #16
  br label %53

53:                                               ; preds = %.critedge, %52
  %.030 = phi ptr [ null, %52 ], [ %4, %.critedge ]
  call void @llvm.lifetime.end.p0(i64 1000, ptr nonnull %3) #16
  ret ptr %.030
}